target datalayout = "e-m:e-p270:32:32-p271:32:32-p272:64:64-i64:64-i128:128-f80:128-n8:16:32:64-S128"
target triple = "x86_64-pc-linux-gnu"

@.str = private unnamed_addr constant [21 x i8] c"setpriority() failed\00", align 1

; Function Attrs: nounwind uwtable
define hidden zeroext i1 @SDL_SetLinuxThreadPriority_REAL(i64 noundef %0, i32 noundef %1) #0 {
  %3 = alloca i1, align 1
  %4 = alloca i64, align 8
  %5 = alloca i32, align 4
  store i64 %0, ptr %4, align 8
  store i32 %1, ptr %5, align 4
  %6 = load i64, ptr %4, align 8
  %7 = trunc i64 %6 to i32
  %8 = load i32, ptr %5, align 4
  %9 = call i32 @setpriority(i32 noundef 0, i32 noundef %7, i32 noundef %8) #5
  %10 = icmp eq i32 %9, 0
  br i1 %10, label %11, label %12

11:                                               ; preds = %2
  store i1 true, ptr %3, align 1
  br label %20

12:                                               ; preds = %2
  %13 = load i64, ptr %4, align 8
  %14 = trunc i64 %13 to i32
  %15 = load i32, ptr %5, align 4
  %16 = call zeroext i1 @rtkit_setpriority_nice(i32 noundef %14, i32 noundef %15)
  br i1 %16, label %17, label %18

17:                                               ; preds = %12
  store i1 true, ptr %3, align 1
  br label %20

18:                                               ; preds = %12
  %19 = call zeroext i1 (ptr, ...) @SDL_SetError_REAL(ptr noundef @.str)
  store i1 %19, ptr %3, align 1
  br label %20

20:                                               ; preds = %18, %17, %11
  %21 = load i1, ptr %3, align 1
  ret i1 %21
}