; Function Attrs: nounwind uwtable
define hidden zeroext i1 @SDL_SetLinuxThreadPriority_REAL(i64 noundef %0, i32 noundef %1) local_unnamed_addr #0 {
  %3 = trunc i64 %0 to i32
  %4 = tail call i32 @setpriority(i32 noundef 0, i32 noundef %3, i32 noundef %1) #4
  %5 = icmp eq i32 %4, 0
  br i1 %5, label %10, label %6

6:                                                ; preds = %2
  %7 = tail call fastcc zeroext i1 @rtkit_setpriority_nice(i32 noundef %3, i32 noundef %1)
  br i1 %7, label %10, label %8

8:                                                ; preds = %6
  %9 = tail call zeroext i1 (ptr, ...) @SDL_SetError_REAL(ptr noundef nonnull @.str) #4
  br label %10

10:                                               ; preds = %6, %2, %8
  %.0 = phi i1 [ %9, %8 ], [ true, %2 ], [ true, %6 ]
  ret i1 %.0
}